target datalayout = "e-m:e-p270:32:32-p271:32:32-p272:64:64-i64:64-i128:128-f80:128-n8:16:32:64-S128"
target triple = "x86_64-unknown-linux-gnu"

%"class.v8::IndirectHandleBase" = type { ptr }
%"class.node::BaseObject" = type { %"class.node::MemoryRetainer", %"class.v8::Global", ptr, ptr }
%"class.node::MemoryRetainer" = type { ptr }
%"class.v8::Global" = type { %"class.v8::PersistentBase" }
%"class.v8::PersistentBase" = type { %"class.v8::IndirectHandleBase" }
%"class.std::__cxx11::basic_string" = type { %"struct.std::__cxx11::basic_string<char>::_Alloc_hider", i64, %union.anon.153 }
%"struct.std::__cxx11::basic_string<char>::_Alloc_hider" = type { ptr }
%union.anon.153 = type { i64, [8 x i8] }
%"class.node::v8_utils::GCProfiler" = type { %"class.node::BaseObject", i64, i8, i32, %"class.std::__cxx11::basic_ostringstream", %"class.node::JSONWriter" }
%"class.std::__cxx11::basic_ostringstream" = type { %"class.std::basic_ostream.base", %"class.std::__cxx11::basic_stringbuf", %"class.std::basic_ios" }
%"class.std::basic_ostream.base" = type { ptr }
%"class.std::__cxx11::basic_stringbuf" = type { %"class.std::basic_streambuf", i32, %"class.std::__cxx11::basic_string" }
%"class.std::basic_streambuf" = type { ptr, ptr, ptr, ptr, ptr, ptr, ptr, %"class.std::locale" }
%"class.std::locale" = type { ptr }
%"class.std::basic_ios" = type { %"class.std::ios_base", ptr, i8, i8, ptr, ptr, ptr, ptr }
%"class.std::ios_base" = type { ptr, i64, i64, i32, i32, i32, ptr, %"struct.std::ios_base::_Words", [8 x %"struct.std::ios_base::_Words"], i32, ptr, %"class.std::locale" }
%"struct.std::ios_base::_Words" = type { ptr, i64 }
%"class.node::JSONWriter" = type <{ ptr, i8, [3 x i8], i32, i32, [4 x i8] }>

@.str.95 = private unnamed_addr constant [5 x i8] c"cost\00", align 1
@.str.96 = private unnamed_addr constant [8 x i8] c"afterGC\00", align 1

; Function Attrs: mustprogress nounwind uwtable
define linkonce_odr dso_local void @_ZN4node10JSONWriter7advanceEv(ptr noundef nonnull align 8 dereferenceable(20) %this) #4 comdat align 2 {
entry:
  %this.addr = alloca ptr, align 8
  %i = alloca i32, align 4
  store ptr %this, ptr %this.addr, align 8
  %this1 = load ptr, ptr %this.addr, align 8
  %compact_ = getelementptr inbounds %"class.node::JSONWriter", ptr %this1, i32 0, i32 1
  %0 = load i8, ptr %compact_, align 8
  %tobool = trunc i8 %0 to i1
  br i1 %tobool, label %if.then, label %if.end

if.then:                                          ; preds = %entry
  br label %for.end

if.end:                                           ; preds = %entry
  store i32 0, ptr %i, align 4
  br label %for.cond

for.cond:                                         ; preds = %for.inc, %if.end
  %1 = load i32, ptr %i, align 4
  %indent_ = getelementptr inbounds %"class.node::JSONWriter", ptr %this1, i32 0, i32 3
  %2 = load i32, ptr %indent_, align 4
  %cmp = icmp slt i32 %1, %2
  br i1 %cmp, label %for.body, label %for.end

for.body:                                         ; preds = %for.cond
  %out_ = getelementptr inbounds %"class.node::JSONWriter", ptr %this1, i32 0, i32 0
  %3 = load ptr, ptr %out_, align 8
  %call = call noundef nonnull align 8 dereferenceable(8) ptr @_ZStlsISt11char_traitsIcEERSt13basic_ostreamIcT_ES5_c(ptr noundef nonnull align 8 dereferenceable(8) %3, i8 noundef signext 32)
  br label %for.inc

for.inc:                                          ; preds = %for.body
  %4 = load i32, ptr %i, align 4
  %inc = add nsw i32 %4, 1
  store i32 %inc, ptr %i, align 4
  br label %for.cond, !llvm.loop !10

for.end:                                          ; preds = %for.cond, %if.then
  ret void
}

; Function Attrs: mustprogress nounwind uwtable
define linkonce_odr dso_local void @_ZN4node10JSONWriter8deindentEv(ptr noundef nonnull align 8 dereferenceable(20) %this) #4 comdat align 2 {
entry:
  %this.addr = alloca ptr, align 8
  store ptr %this, ptr %this.addr, align 8
  %this1 = load ptr, ptr %this.addr, align 8
  %indent_ = getelementptr inbounds %"class.node::JSONWriter", ptr %this1, i32 0, i32 3
  %0 = load i32, ptr %indent_, align 4
  %sub = sub nsw i32 %0, 2
  store i32 %sub, ptr %indent_, align 4
  ret void
}

; Function Attrs: mustprogress nounwind uwtable
define linkonce_odr dso_local void @_ZN4node10JSONWriter14write_new_lineEv(ptr noundef nonnull align 8 dereferenceable(20) %this) #4 comdat align 2 {
entry:
  %this.addr = alloca ptr, align 8
  store ptr %this, ptr %this.addr, align 8
  %this1 = load ptr, ptr %this.addr, align 8
  %compact_ = getelementptr inbounds %"class.node::JSONWriter", ptr %this1, i32 0, i32 1
  %0 = load i8, ptr %compact_, align 8
  %tobool = trunc i8 %0 to i1
  br i1 %tobool, label %if.then, label %if.end

if.then:                                          ; preds = %entry
  br label %return

if.end:                                           ; preds = %entry
  %out_ = getelementptr inbounds %"class.node::JSONWriter", ptr %this1, i32 0, i32 0
  %1 = load ptr, ptr %out_, align 8
  %call = call noundef nonnull align 8 dereferenceable(8) ptr @_ZStlsISt11char_traitsIcEERSt13basic_ostreamIcT_ES5_c(ptr noundef nonnull align 8 dereferenceable(8) %1, i8 noundef signext 10)
  br label %return

return:                                           ; preds = %if.end, %if.then
  ret void
}

; Function Attrs: mustprogress nounwind uwtable
define linkonce_odr dso_local void @_ZN4node10JSONWriter8json_endEv(ptr noundef nonnull align 8 dereferenceable(20) %this) #4 comdat align 2 {
entry:
  %this.addr = alloca ptr, align 8
  store ptr %this, ptr %this.addr, align 8
  %this1 = load ptr, ptr %this.addr, align 8
  call void @_ZN4node10JSONWriter14write_new_lineEv(ptr noundef nonnull align 8 dereferenceable(20) %this1)
  call void @_ZN4node10JSONWriter8deindentEv(ptr noundef nonnull align 8 dereferenceable(20) %this1)
  call void @_ZN4node10JSONWriter7advanceEv(ptr noundef nonnull align 8 dereferenceable(20) %this1)
  %out_ = getelementptr inbounds %"class.node::JSONWriter", ptr %this1, i32 0, i32 0
  %0 = load ptr, ptr %out_, align 8
  %call = call noundef nonnull align 8 dereferenceable(8) ptr @_ZStlsISt11char_traitsIcEERSt13basic_ostreamIcT_ES5_c(ptr noundef nonnull align 8 dereferenceable(8) %0, i8 noundef signext 125)
  %state_ = getelementptr inbounds %"class.node::JSONWriter", ptr %this1, i32 0, i32 4
  store i32 1, ptr %state_, align 8
  ret void
}

; Function Attrs: mustprogress nounwind uwtable
define dso_local noundef ptr @_ZN4node8v8_utils10GCProfiler6writerEv(ptr noundef nonnull align 8 dereferenceable(448) %this) #4 align 2 {
entry:
  %this.addr = alloca ptr, align 8
  store ptr %this, ptr %this.addr, align 8
  %this1 = load ptr, ptr %this.addr, align 8
  %writer_ = getelementptr inbounds %"class.node::v8_utils::GCProfiler", ptr %this1, i32 0, i32 5
  ret ptr %writer_
}

; Function Attrs: mustprogress nounwind uwtable
define internal void @_ZN4node8v8_utilsL15AfterGCCallbackEPN2v87IsolateENS1_6GCTypeENS1_15GCCallbackFlagsEPv(ptr noundef %isolate, i32 noundef %gc_type, i32 noundef %flags, ptr noundef %data) #4 {
entry:
  %isolate.addr = alloca ptr, align 8
  %gc_type.addr = alloca i32, align 4
  %flags.addr = alloca i32, align 4
  %data.addr = alloca ptr, align 8
  %profiler = alloca ptr, align 8
  %writer = alloca ptr, align 8
  %ref.tmp = alloca double, align 8
  store ptr %isolate, ptr %isolate.addr, align 8
  store i32 %gc_type, ptr %gc_type.addr, align 4
  store i32 %flags, ptr %flags.addr, align 4
  store ptr %data, ptr %data.addr, align 8
  %0 = load ptr, ptr %data.addr, align 8
  store ptr %0, ptr %profiler, align 8
  %1 = load ptr, ptr %profiler, align 8
  %current_gc_type = getelementptr inbounds %"class.node::v8_utils::GCProfiler", ptr %1, i32 0, i32 2
  %2 = load i8, ptr %current_gc_type, align 8
  %conv = zext i8 %2 to i32
  %3 = load i32, ptr %gc_type.addr, align 4
  %cmp = icmp ne i32 %conv, %3
  br i1 %cmp, label %if.then, label %if.end

if.then:                                          ; preds = %entry
  br label %return

if.end:                                           ; preds = %entry
  %4 = load ptr, ptr %profiler, align 8
  %call = call noundef ptr @_ZN4node8v8_utils10GCProfiler6writerEv(ptr noundef nonnull align 8 dereferenceable(448) %4)
  store ptr %call, ptr %writer, align 8
  %5 = load ptr, ptr %profiler, align 8
  %current_gc_type1 = getelementptr inbounds %"class.node::v8_utils::GCProfiler", ptr %5, i32 0, i32 2
  store i8 0, ptr %current_gc_type1, align 8
  %6 = load ptr, ptr %writer, align 8
  %call2 = call i64 @uv_hrtime()
  %7 = load ptr, ptr %profiler, align 8
  %start_time = getelementptr inbounds %"class.node::v8_utils::GCProfiler", ptr %7, i32 0, i32 1
  %8 = load i64, ptr %start_time, align 8
  %sub = sub i64 %call2, %8
  %conv3 = uitofp i64 %sub to double
  %div = fdiv double %conv3, 1.000000e+03
  store double %div, ptr %ref.tmp, align 8
  call void @_ZN4node10JSONWriter13json_keyvalueIA5_cdEEvRKT_RKT0_(ptr noundef nonnull align 8 dereferenceable(20) %6, ptr noundef nonnull align 1 dereferenceable(5) @.str.95, ptr noundef nonnull align 8 dereferenceable(8) %ref.tmp)
  %9 = load ptr, ptr %profiler, align 8
  %start_time4 = getelementptr inbounds %"class.node::v8_utils::GCProfiler", ptr %9, i32 0, i32 1
  store i64 0, ptr %start_time4, align 8
  %10 = load ptr, ptr %writer, align 8
  call void @_ZN4node10JSONWriter16json_objectstartIPKcEEvT_(ptr noundef nonnull align 8 dereferenceable(20) %10, ptr noundef @.str.96)
  %11 = load ptr, ptr %writer, align 8
  %12 = load ptr, ptr %isolate.addr, align 8
  call void @_ZN4node8v8_utilsL17SetHeapStatisticsEPNS_10JSONWriterEPN2v87IsolateE(ptr noundef %11, ptr noundef %12)
  %13 = load ptr, ptr %writer, align 8
  call void @_ZN4node10JSONWriter14json_objectendEv(ptr noundef nonnull align 8 dereferenceable(20) %13)
  %14 = load ptr, ptr %writer, align 8
  call void @_ZN4node10JSONWriter8json_endEv(ptr noundef nonnull align 8 dereferenceable(20) %14)
  br label %return

return:                                           ; preds = %if.end, %if.then
  ret void
}