; Function Attrs: mustprogress nounwind uwtable
define internal void @_ZN4node8v8_utilsL15AfterGCCallbackEPN2v87IsolateENS1_6GCTypeENS1_15GCCallbackFlagsEPv(ptr noundef %isolate, i32 noundef %gc_type, i32 %flags, ptr noundef %data) #3 {
entry:
  %ref.tmp = alloca double, align 8
  %current_gc_type = getelementptr inbounds i8, ptr %data, i64 40
  %0 = load i8, ptr %current_gc_type, align 8
  %conv = zext i8 %0 to i32
  %cmp.not = icmp eq i32 %conv, %gc_type
  br i1 %cmp.not, label %if.end, label %return

if.end:                                           ; preds = %entry
  %writer_.i = getelementptr inbounds i8, ptr %data, i64 424
  store i8 0, ptr %current_gc_type, align 8
  %call2 = tail call i64 @uv_hrtime() #20
  %start_time = getelementptr inbounds i8, ptr %data, i64 32
  %1 = load i64, ptr %start_time, align 8
  %sub = sub i64 %call2, %1
  %conv3 = uitofp i64 %sub to double
  %div = fdiv double %conv3, 1.000000e+03
  store double %div, ptr %ref.tmp, align 8
  call void @_ZN4node10JSONWriter13json_keyvalueIA5_cdEEvRKT_RKT0_(ptr noundef nonnull align 8 dereferenceable(20) %writer_.i, ptr noundef nonnull align 1 dereferenceable(5) @.str.95, ptr noundef nonnull align 8 dereferenceable(8) %ref.tmp)
  store i64 0, ptr %start_time, align 8
  call void @_ZN4node10JSONWriter16json_objectstartIPKcEEvT_(ptr noundef nonnull align 8 dereferenceable(20) %writer_.i, ptr noundef nonnull @.str.96)
  call fastcc void @_ZN4node8v8_utilsL17SetHeapStatisticsEPNS_10JSONWriterEPN2v87IsolateE(ptr noundef nonnull %writer_.i, ptr noundef %isolate)
  call void @_ZN4node10JSONWriter14json_objectendEv(ptr noundef nonnull align 8 dereferenceable(20) %writer_.i)
  %compact_.i.i = getelementptr inbounds i8, ptr %data, i64 432
  %2 = load i8, ptr %compact_.i.i, align 8
  %3 = and i8 %2, 1
  %tobool.not.i.i = icmp eq i8 %3, 0
  br i1 %tobool.not.i.i, label %if.end.i.i, label %_ZN4node10JSONWriter14write_new_lineEv.exit.i

if.end.i.i:                                       ; preds = %if.end
  %4 = load ptr, ptr %writer_.i, align 8
  %call.i.i = call noundef nonnull align 8 dereferenceable(8) ptr @_ZStlsISt11char_traitsIcEERSt13basic_ostreamIcT_ES5_c(ptr noundef nonnull align 8 dereferenceable(8) %4, i8 noundef signext 10) #20
  %.pre.i = load i8, ptr %compact_.i.i, align 8
  br label %_ZN4node10JSONWriter14write_new_lineEv.exit.i

_ZN4node10JSONWriter14write_new_lineEv.exit.i:    ; preds = %if.end.i.i, %if.end
  %5 = phi i8 [ %2, %if.end ], [ %.pre.i, %if.end.i.i ]
  %indent_.i.i = getelementptr inbounds i8, ptr %data, i64 436
  %6 = load i32, ptr %indent_.i.i, align 4
  %sub.i.i = add nsw i32 %6, -2
  store i32 %sub.i.i, ptr %indent_.i.i, align 4
  %7 = and i8 %5, 1
  %tobool.not.i2.i = icmp eq i8 %7, 0
  %cmp2.i.i = icmp sgt i32 %6, 2
  %or.cond.i = select i1 %tobool.not.i2.i, i1 %cmp2.i.i, i1 false
  br i1 %or.cond.i, label %for.body.i.i, label %_ZN4node10JSONWriter8json_endEv.exit

for.body.i.i:                                     ; preds = %_ZN4node10JSONWriter14write_new_lineEv.exit.i, %for.body.i.i
  %i.03.i.i = phi i32 [ %inc.i.i, %for.body.i.i ], [ 0, %_ZN4node10JSONWriter14write_new_lineEv.exit.i ]
  %8 = load ptr, ptr %writer_.i, align 8
  %call.i4.i = call noundef nonnull align 8 dereferenceable(8) ptr @_ZStlsISt11char_traitsIcEERSt13basic_ostreamIcT_ES5_c(ptr noundef nonnull align 8 dereferenceable(8) %8, i8 noundef signext 32) #20
  %inc.i.i = add nuw nsw i32 %i.03.i.i, 1
  %9 = load i32, ptr %indent_.i.i, align 4
  %cmp.i.i = icmp slt i32 %inc.i.i, %9
  br i1 %cmp.i.i, label %for.body.i.i, label %_ZN4node10JSONWriter8json_endEv.exit, !llvm.loop !21

_ZN4node10JSONWriter8json_endEv.exit:             ; preds = %for.body.i.i, %_ZN4node10JSONWriter14write_new_lineEv.exit.i
  %10 = load ptr, ptr %writer_.i, align 8
  %call.i = call noundef nonnull align 8 dereferenceable(8) ptr @_ZStlsISt11char_traitsIcEERSt13basic_ostreamIcT_ES5_c(ptr noundef nonnull align 8 dereferenceable(8) %10, i8 noundef signext 125) #20
  %state_.i = getelementptr inbounds i8, ptr %data, i64 440
  store i32 1, ptr %state_.i, align 8
  br label %return

return:                                           ; preds = %entry, %_ZN4node10JSONWriter8json_endEv.exit
  ret void
}